target datalayout = "e-m:e-p270:32:32-p271:32:32-p272:64:64-i64:64-i128:128-f80:128-n8:16:32:64-S128"
target triple = "x86_64-pc-linux-gnu"

%struct._lv_image_t = type { %struct._lv_obj_t, ptr, ptr, %struct.lv_point_t, i32, i32, i32, i32, i32, %struct.lv_point_t, i16 }
%struct._lv_obj_t = type { ptr, ptr, ptr, ptr, ptr, %struct.lv_area_t, i32, i16, i16 }
%struct.lv_area_t = type { i32, i32, i32, i32 }
%struct.lv_point_t = type { i32, i32 }

; Function Attrs: nounwind uwtable
define internal void @lv_image_constructor(ptr noundef %0, ptr noundef %1) #0 {
  %3 = alloca ptr, align 8
  %4 = alloca ptr, align 8
  %5 = alloca ptr, align 8
  store ptr %0, ptr %3, align 8, !tbaa !3
  store ptr %1, ptr %4, align 8, !tbaa !8
  call void @llvm.lifetime.start.p0(i64 8, ptr %5) #5
  %6 = load ptr, ptr %4, align 8, !tbaa !8
  store ptr %6, ptr %5, align 8, !tbaa !10
  %7 = load ptr, ptr %5, align 8, !tbaa !10
  %8 = getelementptr inbounds nuw %struct._lv_image_t, ptr %7, i32 0, i32 1
  store ptr null, ptr %8, align 8, !tbaa !12
  %9 = load ptr, ptr %5, align 8, !tbaa !10
  %10 = getelementptr inbounds nuw %struct._lv_image_t, ptr %9, i32 0, i32 10
  %11 = load i16, ptr %10, align 4
  %12 = and i16 %11, -4
  %13 = or i16 %12, 3
  store i16 %13, ptr %10, align 4
  %14 = load ptr, ptr %5, align 8, !tbaa !10
  %15 = getelementptr inbounds nuw %struct._lv_image_t, ptr %14, i32 0, i32 10
  %16 = load i16, ptr %15, align 4
  %17 = and i16 %16, -125
  %18 = or i16 %17, 0
  store i16 %18, ptr %15, align 4
  %19 = load ptr, ptr %4, align 8, !tbaa !8
  %20 = call i32 @lv_obj_get_width(ptr noundef %19)
  %21 = load ptr, ptr %5, align 8, !tbaa !10
  %22 = getelementptr inbounds nuw %struct._lv_image_t, ptr %21, i32 0, i32 4
  store i32 %20, ptr %22, align 8, !tbaa !21
  %23 = load ptr, ptr %4, align 8, !tbaa !8
  %24 = call i32 @lv_obj_get_height(ptr noundef %23)
  %25 = load ptr, ptr %5, align 8, !tbaa !10
  %26 = getelementptr inbounds nuw %struct._lv_image_t, ptr %25, i32 0, i32 5
  store i32 %24, ptr %26, align 4, !tbaa !22
  %27 = load ptr, ptr %5, align 8, !tbaa !10
  %28 = getelementptr inbounds nuw %struct._lv_image_t, ptr %27, i32 0, i32 6
  store i32 0, ptr %28, align 8, !tbaa !23
  %29 = load ptr, ptr %5, align 8, !tbaa !10
  %30 = getelementptr inbounds nuw %struct._lv_image_t, ptr %29, i32 0, i32 7
  store i32 256, ptr %30, align 4, !tbaa !24
  %31 = load ptr, ptr %5, align 8, !tbaa !10
  %32 = getelementptr inbounds nuw %struct._lv_image_t, ptr %31, i32 0, i32 8
  store i32 256, ptr %32, align 8, !tbaa !25
  %33 = load ptr, ptr %5, align 8, !tbaa !10
  %34 = getelementptr inbounds nuw %struct._lv_image_t, ptr %33, i32 0, i32 10
  %35 = load i16, ptr %34, align 4
  %36 = and i16 %35, -129
  %37 = or i16 %36, 128
  store i16 %37, ptr %34, align 4
  %38 = load ptr, ptr %5, align 8, !tbaa !10
  %39 = getelementptr inbounds nuw %struct._lv_image_t, ptr %38, i32 0, i32 3
  call void @lv_point_set(ptr noundef %39, i32 noundef 0, i32 noundef 0)
  %40 = load ptr, ptr %5, align 8, !tbaa !10
  %41 = getelementptr inbounds nuw %struct._lv_image_t, ptr %40, i32 0, i32 9
  call void @lv_point_set(ptr noundef %41, i32 noundef 536870962, i32 noundef 536870962)
  %42 = load ptr, ptr %5, align 8, !tbaa !10
  %43 = getelementptr inbounds nuw %struct._lv_image_t, ptr %42, i32 0, i32 10
  %44 = load i16, ptr %43, align 4
  %45 = and i16 %44, -3841
  %46 = or i16 %45, 2304
  store i16 %46, ptr %43, align 4
  %47 = load ptr, ptr %4, align 8, !tbaa !8
  call void @lv_obj_remove_flag(ptr noundef %47, i32 noundef 2)
  %48 = load ptr, ptr %4, align 8, !tbaa !8
  call void @lv_obj_add_flag(ptr noundef %48, i32 noundef 65536)
  call void @llvm.lifetime.end.p0(i64 8, ptr %5) #5
  ret void
}