; Function Attrs: nounwind uwtable
define internal void @lv_image_constructor(ptr readnone captures(none) %0, ptr noundef initializes((64, 72)) %1) #0 {
  %3 = getelementptr inbounds nuw i8, ptr %1, i64 64
  store ptr null, ptr %3, align 8, !tbaa !3
  %4 = getelementptr inbounds nuw i8, ptr %1, i64 116
  %5 = load i16, ptr %4, align 4
  %6 = and i16 %5, -128
  %7 = or disjoint i16 %6, 3
  store i16 %7, ptr %4, align 4
  %8 = tail call i32 @lv_obj_get_width(ptr noundef %1) #6
  %9 = getelementptr inbounds nuw i8, ptr %1, i64 88
  store i32 %8, ptr %9, align 8, !tbaa !17
  %10 = tail call i32 @lv_obj_get_height(ptr noundef %1) #6
  %11 = getelementptr inbounds nuw i8, ptr %1, i64 92
  store i32 %10, ptr %11, align 4, !tbaa !18
  %12 = getelementptr inbounds nuw i8, ptr %1, i64 96
  store i32 0, ptr %12, align 8, !tbaa !19
  %13 = getelementptr inbounds nuw i8, ptr %1, i64 100
  store i32 256, ptr %13, align 4, !tbaa !20
  %14 = getelementptr inbounds nuw i8, ptr %1, i64 104
  store i32 256, ptr %14, align 8, !tbaa !21
  %15 = load i16, ptr %4, align 4
  %16 = or i16 %15, 128
  store i16 %16, ptr %4, align 4
  %17 = getelementptr inbounds nuw i8, ptr %1, i64 80
  tail call void @lv_point_set(ptr noundef nonnull %17, i32 noundef 0, i32 noundef 0) #6
  %18 = getelementptr inbounds nuw i8, ptr %1, i64 108
  tail call void @lv_point_set(ptr noundef nonnull %18, i32 noundef 536870962, i32 noundef 536870962) #6
  %19 = load i16, ptr %4, align 4
  %20 = and i16 %19, -3841
  %21 = or disjoint i16 %20, 2304
  store i16 %21, ptr %4, align 4
  tail call void @lv_obj_remove_flag(ptr noundef %1, i32 noundef 2) #6
  tail call void @lv_obj_add_flag(ptr noundef %1, i32 noundef 65536) #6
  ret void
}